target datalayout = "e-m:e-p270:32:32-p271:32:32-p272:64:64-i64:64-i128:128-f80:128-n8:16:32:64-S128"
target triple = "x86_64-pc-linux-gnu"

%struct.ReorderBuffer = type { ptr, %struct.dlist_head, %struct.dlist_head, %struct.dclist_head, i32, ptr, ptr, ptr, ptr, ptr, ptr, ptr, ptr, ptr, ptr, ptr, ptr, ptr, ptr, ptr, ptr, ptr, ptr, ptr, ptr, i8, ptr, ptr, ptr, ptr, i64, ptr, i64, i64, ptr, i64, i64, i64, i64, i64, i64, i64, i64 }
%struct.dlist_head = type { %struct.dlist_node }
%struct.dlist_node = type { ptr, ptr }
%struct.dclist_head = type { %struct.dlist_head, i32 }
%struct.ReorderBufferTXN = type { i32, i32, i32, ptr, i64, i64, i64, ptr, i64, i16, i64, %union.anon.4, ptr, i64, %struct.dlist_node, ptr, i32, i64, i64, %struct.dlist_head, %struct.dlist_head, i64, ptr, ptr, %struct.dlist_head, i32, i32, ptr, %struct.dlist_node, %struct.dlist_node, %struct.pairingheap_node, i64, i64, ptr }
%union.anon.4 = type { i64 }
%struct.pairingheap_node = type { ptr, ptr, ptr }
%struct.dlist_iter = type { ptr, ptr }

; Function Attrs: inlinehint nounwind uwtable
define internal i32 @dclist_count(ptr noundef %0) #4 {
  %2 = alloca ptr, align 8
  store ptr %0, ptr %2, align 8
  %3 = load ptr, ptr %2, align 8
  %4 = getelementptr inbounds nuw %struct.dclist_head, ptr %3, i32 0, i32 1
  %5 = load i32, ptr %4, align 8
  ret i32 %5
}

; Function Attrs: nounwind uwtable
define dso_local ptr @ReorderBufferGetCatalogChangesXacts(ptr noundef %0) #0 {
  %2 = alloca ptr, align 8
  %3 = alloca ptr, align 8
  %4 = alloca %struct.dlist_iter, align 8
  %5 = alloca ptr, align 8
  %6 = alloca i64, align 8
  %7 = alloca i32, align 4
  %8 = alloca i32, align 4
  %9 = alloca i32, align 4
  %10 = alloca ptr, align 8
  %11 = alloca i32, align 4
  %12 = alloca i32, align 4
  store ptr %0, ptr %3, align 8
  call void @llvm.lifetime.start.p0(i64 16, ptr %4) #13
  call void @llvm.lifetime.start.p0(i64 8, ptr %5) #13
  store ptr null, ptr %5, align 8
  call void @llvm.lifetime.start.p0(i64 8, ptr %6) #13
  store i64 0, ptr %6, align 8
  %13 = load ptr, ptr %3, align 8
  %14 = getelementptr inbounds nuw %struct.ReorderBuffer, ptr %13, i32 0, i32 3
  %15 = call i32 @dclist_count(ptr noundef %14)
  %16 = icmp eq i32 %15, 0
  br i1 %16, label %17, label %18

17:                                               ; preds = %1
  store ptr null, ptr %2, align 8
  store i32 1, ptr %7, align 4
  br label %85

18:                                               ; preds = %1
  %19 = load ptr, ptr %3, align 8
  %20 = getelementptr inbounds nuw %struct.ReorderBuffer, ptr %19, i32 0, i32 3
  %21 = call i32 @dclist_count(ptr noundef %20)
  %22 = zext i32 %21 to i64
  %23 = mul i64 4, %22
  %24 = call ptr @palloc(i64 noundef %23)
  store ptr %24, ptr %5, align 8
  br label %25

25:                                               ; preds = %18
  br label %26

26:                                               ; preds = %25
  br label %27

27:                                               ; preds = %26
  store i32 1, ptr %8, align 4
  br label %28

28:                                               ; preds = %27
  br label %29

29:                                               ; preds = %28
  br label %30

30:                                               ; preds = %29
  store i32 1, ptr %9, align 4
  %31 = load ptr, ptr %3, align 8
  %32 = getelementptr inbounds nuw %struct.ReorderBuffer, ptr %31, i32 0, i32 3
  %33 = getelementptr inbounds nuw %struct.dclist_head, ptr %32, i32 0, i32 0
  %34 = getelementptr inbounds nuw %struct.dlist_head, ptr %33, i32 0, i32 0
  %35 = getelementptr inbounds nuw %struct.dlist_iter, ptr %4, i32 0, i32 1
  store ptr %34, ptr %35, align 8
  %36 = getelementptr inbounds nuw %struct.dlist_iter, ptr %4, i32 0, i32 1
  %37 = load ptr, ptr %36, align 8
  %38 = getelementptr inbounds nuw %struct.dlist_node, ptr %37, i32 0, i32 1
  %39 = load ptr, ptr %38, align 8
  %40 = icmp ne ptr %39, null
  br i1 %40, label %41, label %46

41:                                               ; preds = %30
  %42 = getelementptr inbounds nuw %struct.dlist_iter, ptr %4, i32 0, i32 1
  %43 = load ptr, ptr %42, align 8
  %44 = getelementptr inbounds nuw %struct.dlist_node, ptr %43, i32 0, i32 1
  %45 = load ptr, ptr %44, align 8
  br label %49

46:                                               ; preds = %30
  %47 = getelementptr inbounds nuw %struct.dlist_iter, ptr %4, i32 0, i32 1
  %48 = load ptr, ptr %47, align 8
  br label %49

49:                                               ; preds = %46, %41
  %50 = phi ptr [ %45, %41 ], [ %48, %46 ]
  %51 = getelementptr inbounds nuw %struct.dlist_iter, ptr %4, i32 0, i32 0
  store ptr %50, ptr %51, align 8
  br label %52

52:                                               ; preds = %75, %49
  %53 = getelementptr inbounds nuw %struct.dlist_iter, ptr %4, i32 0, i32 0
  %54 = load ptr, ptr %53, align 8
  %55 = getelementptr inbounds nuw %struct.dlist_iter, ptr %4, i32 0, i32 1
  %56 = load ptr, ptr %55, align 8
  %57 = icmp ne ptr %54, %56
  br i1 %57, label %58, label %81

58:                                               ; preds = %52
  call void @llvm.lifetime.start.p0(i64 8, ptr %10) #13
  br label %59

59:                                               ; preds = %58
  br label %60

60:                                               ; preds = %59
  br label %61

61:                                               ; preds = %60
  store i32 1, ptr %11, align 4
  br label %62

62:                                               ; preds = %61
  br label %63

63:                                               ; preds = %62
  br label %64

64:                                               ; preds = %63
  store i32 1, ptr %12, align 4
  %65 = getelementptr inbounds nuw %struct.dlist_iter, ptr %4, i32 0, i32 0
  %66 = load ptr, ptr %65, align 8
  %67 = getelementptr inbounds i8, ptr %66, i64 -256
  store ptr %67, ptr %10, align 8
  %68 = load ptr, ptr %10, align 8
  %69 = getelementptr inbounds nuw %struct.ReorderBufferTXN, ptr %68, i32 0, i32 1
  %70 = load i32, ptr %69, align 4
  %71 = load ptr, ptr %5, align 8
  %72 = load i64, ptr %6, align 8
  %73 = add i64 %72, 1
  store i64 %73, ptr %6, align 8
  %74 = getelementptr inbounds nuw i32, ptr %71, i64 %72
  store i32 %70, ptr %74, align 4
  call void @llvm.lifetime.end.p0(i64 8, ptr %10) #13
  br label %75

75:                                               ; preds = %64
  %76 = getelementptr inbounds nuw %struct.dlist_iter, ptr %4, i32 0, i32 0
  %77 = load ptr, ptr %76, align 8
  %78 = getelementptr inbounds nuw %struct.dlist_node, ptr %77, i32 0, i32 1
  %79 = load ptr, ptr %78, align 8
  %80 = getelementptr inbounds nuw %struct.dlist_iter, ptr %4, i32 0, i32 0
  store ptr %79, ptr %80, align 8
  br label %52, !llvm.loop !15

81:                                               ; preds = %52
  %82 = load ptr, ptr %5, align 8
  %83 = load i64, ptr %6, align 8
  call void @pg_qsort(ptr noundef %82, i64 noundef %83, i64 noundef 4, ptr noundef @xidComparator)
  %84 = load ptr, ptr %5, align 8
  store ptr %84, ptr %2, align 8
  store i32 1, ptr %7, align 4
  br label %85

85:                                               ; preds = %81, %17
  call void @llvm.lifetime.end.p0(i64 8, ptr %6) #13
  call void @llvm.lifetime.end.p0(i64 8, ptr %5) #13
  call void @llvm.lifetime.end.p0(i64 16, ptr %4) #13
  %86 = load ptr, ptr %2, align 8
  ret ptr %86
}