; Function Attrs: nounwind uwtable
define dso_local ptr @ReorderBufferGetCatalogChangesXacts(ptr noundef readonly captures(address) %0) local_unnamed_addr #0 {
  %2 = getelementptr inbounds nuw i8, ptr %0, i64 40
  %3 = getelementptr i8, ptr %0, i64 56
  %.val = load i32, ptr %3, align 8
  %4 = icmp eq i32 %.val, 0
  br i1 %4, label %17, label %5

5:                                                ; preds = %1
  %6 = zext i32 %.val to i64
  %7 = shl nuw nsw i64 %6, 2
  %8 = tail call ptr @palloc(i64 noundef %7) #19
  %9 = getelementptr inbounds nuw i8, ptr %0, i64 48
  %10 = load ptr, ptr %9, align 8
  %.not = icmp eq ptr %10, null
  %.not161821 = icmp eq ptr %10, %2
  %.not1618 = select i1 %.not, i1 true, i1 %.not161821
  br i1 %.not1618, label %._crit_edge, label %.lr.ph

.lr.ph:                                           ; preds = %5, %.lr.ph
  %.sroa.0.020 = phi ptr [ %16, %.lr.ph ], [ %10, %5 ]
  %.01419 = phi i64 [ %13, %.lr.ph ], [ 0, %5 ]
  %11 = getelementptr inbounds i8, ptr %.sroa.0.020, i64 -252
  %12 = load i32, ptr %11, align 4
  %13 = add i64 %.01419, 1
  %14 = getelementptr inbounds nuw i32, ptr %8, i64 %.01419
  store i32 %12, ptr %14, align 4
  %15 = getelementptr inbounds nuw i8, ptr %.sroa.0.020, i64 8
  %16 = load ptr, ptr %15, align 8
  %.not16 = icmp eq ptr %16, %2
  br i1 %.not16, label %._crit_edge, label %.lr.ph, !llvm.loop !16

._crit_edge:                                      ; preds = %.lr.ph, %5
  %.014.lcssa = phi i64 [ 0, %5 ], [ %13, %.lr.ph ]
  tail call void @pg_qsort(ptr noundef %8, i64 noundef %.014.lcssa, i64 noundef 4, ptr noundef nonnull @xidComparator) #19
  br label %17

17:                                               ; preds = %1, %._crit_edge
  %.0 = phi ptr [ %8, %._crit_edge ], [ null, %1 ]
  ret ptr %.0
}